; Function Attrs: nounwind uwtable
define hidden noalias ptr @SDL_ChannelMapDup(ptr noundef readonly captures(none) %0, i32 noundef %1) local_unnamed_addr #0 {
  %3 = sext i32 %1 to i64
  %4 = shl nsw i64 %3, 2
  %5 = tail call noalias ptr @SDL_malloc_REAL(i64 noundef %4) #14
  %.not = icmp eq ptr %5, null
  br i1 %.not, label %7, label %6

6:                                                ; preds = %2
  tail call void @llvm.memcpy.p0.p0.i64(ptr nonnull align 4 %5, ptr align 4 %0, i64 %4, i1 false)
  br label %7

7:                                                ; preds = %6, %2
  ret ptr %5
}